target datalayout = "e-m:e-p270:32:32-p271:32:32-p272:64:64-i64:64-i128:128-f80:128-n8:16:32:64-S128"
target triple = "x86_64-pc-linux-gnu"

%struct.timeval = type { i64, i64 }
%struct.evhttp = type { %struct.anon.9, %struct.boundq, %struct.httpcbq, %struct.evconq, %struct.evwsq, i32, i32, %struct.vhostsq, %struct.aliasq, ptr, %struct.timeval, %struct.timeval, i64, i64, i32, ptr, i32, ptr, ptr, ptr, ptr, ptr, ptr, ptr, ptr, ptr, ptr }
%struct.anon.9 = type { ptr, ptr }
%struct.boundq = type { ptr, ptr }
%struct.httpcbq = type { ptr, ptr }
%struct.evconq = type { ptr, ptr }
%struct.evwsq = type { ptr, ptr }
%struct.vhostsq = type { ptr, ptr }
%struct.aliasq = type { ptr, ptr }
%struct.evhttp_cb = type { %struct.anon.12, ptr, ptr, ptr }
%struct.anon.12 = type { ptr, ptr }

; Function Attrs: nounwind uwtable
define i32 @evhttp_del_cb(ptr noundef %0, ptr noundef %1) #0 {
  %3 = alloca i32, align 4
  %4 = alloca ptr, align 8
  %5 = alloca ptr, align 8
  %6 = alloca ptr, align 8
  %7 = alloca i32, align 4
  store ptr %0, ptr %4, align 8
  store ptr %1, ptr %5, align 8
  call void @llvm.lifetime.start.p0(i64 8, ptr %6) #11
  %8 = load ptr, ptr %4, align 8
  %9 = getelementptr inbounds nuw %struct.evhttp, ptr %8, i32 0, i32 2
  %10 = getelementptr inbounds nuw %struct.httpcbq, ptr %9, i32 0, i32 0
  %11 = load ptr, ptr %10, align 8
  store ptr %11, ptr %6, align 8
  br label %12

12:                                               ; preds = %24, %2
  %13 = load ptr, ptr %6, align 8
  %14 = icmp ne ptr %13, null
  br i1 %14, label %15, label %29

15:                                               ; preds = %12
  %16 = load ptr, ptr %6, align 8
  %17 = getelementptr inbounds nuw %struct.evhttp_cb, ptr %16, i32 0, i32 1
  %18 = load ptr, ptr %17, align 8
  %19 = load ptr, ptr %5, align 8
  %20 = call i32 @strcmp(ptr noundef %18, ptr noundef %19) #12
  %21 = icmp eq i32 %20, 0
  br i1 %21, label %22, label %23

22:                                               ; preds = %15
  br label %29

23:                                               ; preds = %15
  br label %24

24:                                               ; preds = %23
  %25 = load ptr, ptr %6, align 8
  %26 = getelementptr inbounds nuw %struct.evhttp_cb, ptr %25, i32 0, i32 0
  %27 = getelementptr inbounds nuw %struct.anon.12, ptr %26, i32 0, i32 0
  %28 = load ptr, ptr %27, align 8
  store ptr %28, ptr %6, align 8
  br label %12, !llvm.loop !30

29:                                               ; preds = %22, %12
  %30 = load ptr, ptr %6, align 8
  %31 = icmp eq ptr %30, null
  br i1 %31, label %32, label %33

32:                                               ; preds = %29
  store i32 -1, ptr %3, align 4
  store i32 1, ptr %7, align 4
  br label %74

33:                                               ; preds = %29
  br label %34

34:                                               ; preds = %33
  %35 = load ptr, ptr %6, align 8
  %36 = getelementptr inbounds nuw %struct.evhttp_cb, ptr %35, i32 0, i32 0
  %37 = getelementptr inbounds nuw %struct.anon.12, ptr %36, i32 0, i32 0
  %38 = load ptr, ptr %37, align 8
  %39 = icmp ne ptr %38, null
  br i1 %39, label %40, label %51

40:                                               ; preds = %34
  %41 = load ptr, ptr %6, align 8
  %42 = getelementptr inbounds nuw %struct.evhttp_cb, ptr %41, i32 0, i32 0
  %43 = getelementptr inbounds nuw %struct.anon.12, ptr %42, i32 0, i32 1
  %44 = load ptr, ptr %43, align 8
  %45 = load ptr, ptr %6, align 8
  %46 = getelementptr inbounds nuw %struct.evhttp_cb, ptr %45, i32 0, i32 0
  %47 = getelementptr inbounds nuw %struct.anon.12, ptr %46, i32 0, i32 0
  %48 = load ptr, ptr %47, align 8
  %49 = getelementptr inbounds nuw %struct.evhttp_cb, ptr %48, i32 0, i32 0
  %50 = getelementptr inbounds nuw %struct.anon.12, ptr %49, i32 0, i32 1
  store ptr %44, ptr %50, align 8
  br label %59

51:                                               ; preds = %34
  %52 = load ptr, ptr %6, align 8
  %53 = getelementptr inbounds nuw %struct.evhttp_cb, ptr %52, i32 0, i32 0
  %54 = getelementptr inbounds nuw %struct.anon.12, ptr %53, i32 0, i32 1
  %55 = load ptr, ptr %54, align 8
  %56 = load ptr, ptr %4, align 8
  %57 = getelementptr inbounds nuw %struct.evhttp, ptr %56, i32 0, i32 2
  %58 = getelementptr inbounds nuw %struct.httpcbq, ptr %57, i32 0, i32 1
  store ptr %55, ptr %58, align 8
  br label %59

59:                                               ; preds = %51, %40
  %60 = load ptr, ptr %6, align 8
  %61 = getelementptr inbounds nuw %struct.evhttp_cb, ptr %60, i32 0, i32 0
  %62 = getelementptr inbounds nuw %struct.anon.12, ptr %61, i32 0, i32 0
  %63 = load ptr, ptr %62, align 8
  %64 = load ptr, ptr %6, align 8
  %65 = getelementptr inbounds nuw %struct.evhttp_cb, ptr %64, i32 0, i32 0
  %66 = getelementptr inbounds nuw %struct.anon.12, ptr %65, i32 0, i32 1
  %67 = load ptr, ptr %66, align 8
  store ptr %63, ptr %67, align 8
  br label %68

68:                                               ; preds = %59
  br label %69

69:                                               ; preds = %68
  %70 = load ptr, ptr %6, align 8
  %71 = getelementptr inbounds nuw %struct.evhttp_cb, ptr %70, i32 0, i32 1
  %72 = load ptr, ptr %71, align 8
  call void @event_mm_free_(ptr noundef %72)
  %73 = load ptr, ptr %6, align 8
  call void @event_mm_free_(ptr noundef %73)
  store i32 0, ptr %3, align 4
  store i32 1, ptr %7, align 4
  br label %74

74:                                               ; preds = %69, %32
  call void @llvm.lifetime.end.p0(i64 8, ptr %6) #11
  %75 = load i32, ptr %3, align 4
  ret i32 %75
}